target datalayout = "e-m:e-p270:32:32-p271:32:32-p272:64:64-i64:64-f80:128-n8:16:32:64-S128"
target triple = "x86_64-pc-linux-gnu"

%struct.Student = type { i32, i32, i32, i32 }

@.str = private unnamed_addr constant [3 x i8] c"%d\00", align 1
@.str.1 = private unnamed_addr constant [7 x i8] c"%d%d%d\00", align 1
@.str.2 = private unnamed_addr constant [7 x i8] c"%d %d\0A\00", align 1

; Function Attrs: noinline nounwind uwtable
define dso_local i32 @main() #0 {
  %1 = alloca i32, align 4
  %2 = alloca [100000 x %struct.Student], align 16
  %3 = alloca %struct.Student, align 4
  %4 = alloca i32, align 4
  %5 = alloca i32, align 4
  %6 = alloca i32, align 4
  %7 = alloca i32, align 4
  %8 = alloca i32, align 4
  store i32 0, i32* %1, align 4
  %9 = call i32 (i8*, ...) @__isoc99_scanf(i8* getelementptr inbounds ([3 x i8], [3 x i8]* @.str, i64 0, i64 0), i32* %4)
  store i32 0, i32* %5, align 4
  br label %10

10:                                               ; preds = %43, %0
  %11 = load i32, i32* %5, align 4
  %12 = load i32, i32* %4, align 4
  %13 = icmp slt i32 %11, %12
  br i1 %13, label %14, label %46

14:                                               ; preds = %10
  %15 = load i32, i32* %5, align 4
  %16 = sext i32 %15 to i64
  %17 = getelementptr inbounds [100000 x %struct.Student], [100000 x %struct.Student]* %2, i64 0, i64 %16
  %18 = getelementptr inbounds %struct.Student, %struct.Student* %17, i32 0, i32 0
  %19 = load i32, i32* %5, align 4
  %20 = sext i32 %19 to i64
  %21 = getelementptr inbounds [100000 x %struct.Student], [100000 x %struct.Student]* %2, i64 0, i64 %20
  %22 = getelementptr inbounds %struct.Student, %struct.Student* %21, i32 0, i32 1
  %23 = load i32, i32* %5, align 4
  %24 = sext i32 %23 to i64
  %25 = getelementptr inbounds [100000 x %struct.Student], [100000 x %struct.Student]* %2, i64 0, i64 %24
  %26 = getelementptr inbounds %struct.Student, %struct.Student* %25, i32 0, i32 2
  %27 = call i32 (i8*, ...) @__isoc99_scanf(i8* getelementptr inbounds ([7 x i8], [7 x i8]* @.str.1, i64 0, i64 0), i32* %18, i32* %22, i32* %26)
  %28 = load i32, i32* %5, align 4
  %29 = sext i32 %28 to i64
  %30 = getelementptr inbounds [100000 x %struct.Student], [100000 x %struct.Student]* %2, i64 0, i64 %29
  %31 = getelementptr inbounds %struct.Student, %struct.Student* %30, i32 0, i32 1
  %32 = load i32, i32* %31, align 4
  %33 = load i32, i32* %5, align 4
  %34 = sext i32 %33 to i64
  %35 = getelementptr inbounds [100000 x %struct.Student], [100000 x %struct.Student]* %2, i64 0, i64 %34
  %36 = getelementptr inbounds %struct.Student, %struct.Student* %35, i32 0, i32 2
  %37 = load i32, i32* %36, align 8
  %38 = add nsw i32 %32, %37
  %39 = load i32, i32* %5, align 4
  %40 = sext i32 %39 to i64
  %41 = getelementptr inbounds [100000 x %struct.Student], [100000 x %struct.Student]* %2, i64 0, i64 %40
  %42 = getelementptr inbounds %struct.Student, %struct.Student* %41, i32 0, i32 3
  store i32 %38, i32* %42, align 4
  br label %43

43:                                               ; preds = %14
  %44 = load i32, i32* %5, align 4
  %45 = add nsw i32 %44, 1
  store i32 %45, i32* %5, align 4
  br label %10

46:                                               ; preds = %10
  store i32 0, i32* %5, align 4
  br label %47

47:                                               ; preds = %117, %46
  %48 = load i32, i32* %5, align 4
  %49 = icmp slt i32 %48, 3
  br i1 %49, label %50, label %120

50:                                               ; preds = %47
  %51 = load i32, i32* %5, align 4
  %52 = sext i32 %51 to i64
  %53 = getelementptr inbounds [100000 x %struct.Student], [100000 x %struct.Student]* %2, i64 0, i64 %52
  %54 = getelementptr inbounds %struct.Student, %struct.Student* %53, i32 0, i32 3
  %55 = load i32, i32* %54, align 4
  store i32 %55, i32* %7, align 4
  %56 = load i32, i32* %5, align 4
  store i32 %56, i32* %8, align 4
  %57 = load i32, i32* %5, align 4
  %58 = add nsw i32 %57, 1
  store i32 %58, i32* %6, align 4
  br label %59

59:                                               ; preds = %79, %50
  %60 = load i32, i32* %6, align 4
  %61 = load i32, i32* %4, align 4
  %62 = icmp slt i32 %60, %61
  br i1 %62, label %63, label %82

63:                                               ; preds = %59
  %64 = load i32, i32* %6, align 4
  %65 = sext i32 %64 to i64
  %66 = getelementptr inbounds [100000 x %struct.Student], [100000 x %struct.Student]* %2, i64 0, i64 %65
  %67 = getelementptr inbounds %struct.Student, %struct.Student* %66, i32 0, i32 3
  %68 = load i32, i32* %67, align 4
  %69 = load i32, i32* %7, align 4
  %70 = icmp sgt i32 %68, %69
  br i1 %70, label %71, label %78

71:                                               ; preds = %63
  %72 = load i32, i32* %6, align 4
  %73 = sext i32 %72 to i64
  %74 = getelementptr inbounds [100000 x %struct.Student], [100000 x %struct.Student]* %2, i64 0, i64 %73
  %75 = getelementptr inbounds %struct.Student, %struct.Student* %74, i32 0, i32 3
  %76 = load i32, i32* %75, align 4
  store i32 %76, i32* %7, align 4
  %77 = load i32, i32* %6, align 4
  store i32 %77, i32* %8, align 4
  br label %78

78:                                               ; preds = %71, %63
  br label %79

79:                                               ; preds = %78
  %80 = load i32, i32* %6, align 4
  %81 = add nsw i32 %80, 1
  store i32 %81, i32* %6, align 4
  br label %59

82:                                               ; preds = %59
  %83 = load i32, i32* %8, align 4
  %84 = load i32, i32* %5, align 4
  %85 = icmp ne i32 %83, %84
  br i1 %85, label %86, label %105

86:                                               ; preds = %82
  %87 = load i32, i32* %5, align 4
  %88 = sext i32 %87 to i64
  %89 = getelementptr inbounds [100000 x %struct.Student], [100000 x %struct.Student]* %2, i64 0, i64 %88
  %90 = bitcast %struct.Student* %3 to i8*
  %91 = bitcast %struct.Student* %89 to i8*
  call void @llvm.memcpy.p0i8.p0i8.i64(i8* align 4 %90, i8* align 16 %91, i64 16, i1 false)
  %92 = load i32, i32* %5, align 4
  %93 = sext i32 %92 to i64
  %94 = getelementptr inbounds [100000 x %struct.Student], [100000 x %struct.Student]* %2, i64 0, i64 %93
  %95 = load i32, i32* %8, align 4
  %96 = sext i32 %95 to i64
  %97 = getelementptr inbounds [100000 x %struct.Student], [100000 x %struct.Student]* %2, i64 0, i64 %96
  %98 = bitcast %struct.Student* %94 to i8*
  %99 = bitcast %struct.Student* %97 to i8*
  call void @llvm.memcpy.p0i8.p0i8.i64(i8* align 16 %98, i8* align 16 %99, i64 16, i1 false)
  %100 = load i32, i32* %8, align 4
  %101 = sext i32 %100 to i64
  %102 = getelementptr inbounds [100000 x %struct.Student], [100000 x %struct.Student]* %2, i64 0, i64 %101
  %103 = bitcast %struct.Student* %102 to i8*
  %104 = bitcast %struct.Student* %3 to i8*
  call void @llvm.memcpy.p0i8.p0i8.i64(i8* align 16 %103, i8* align 4 %104, i64 16, i1 false)
  br label %105

105:                                              ; preds = %86, %82
  %106 = load i32, i32* %5, align 4
  %107 = sext i32 %106 to i64
  %108 = getelementptr inbounds [100000 x %struct.Student], [100000 x %struct.Student]* %2, i64 0, i64 %107
  %109 = getelementptr inbounds %struct.Student, %struct.Student* %108, i32 0, i32 0
  %110 = load i32, i32* %109, align 16
  %111 = load i32, i32* %5, align 4
  %112 = sext i32 %111 to i64
  %113 = getelementptr inbounds [100000 x %struct.Student], [100000 x %struct.Student]* %2, i64 0, i64 %112
  %114 = getelementptr inbounds %struct.Student, %struct.Student* %113, i32 0, i32 3
  %115 = load i32, i32* %114, align 4
  %116 = call i32 (i8*, ...) @printf(i8* getelementptr inbounds ([7 x i8], [7 x i8]* @.str.2, i64 0, i64 0), i32 %110, i32 %115)
  br label %117

117:                                              ; preds = %105
  %118 = load i32, i32* %5, align 4
  %119 = add nsw i32 %118, 1
  store i32 %119, i32* %5, align 4
  br label %47

120:                                              ; preds = %47
  ret i32 0
}